(lp0
(lp1
I3
aI67
aa(lp2
I3
aI79
aa(lp3
I3
aI86
aa(lp4
I4
aI42
aa(lp5
I4
aI62
aa(lp6
I4
aI67
aa(lp7
I4
aI68
aa(lp8
I4
aI82
aa(lp9
I4
aI129
aa(lp10
I5
aI32
aa(lp11
I5
aI33
aa(lp12
I5
aI52
aa(lp13
I5
aI67
aa(lp14
I5
aI86
aa(lp15
I6
aI97
aa(lp16
I6
aI112
aa(lp17
I7
aI1
aa(lp18
I7
aI67
aa(lp19
I8
aI9
aa(lp20
I8
aI32
aa(lp21
I8
aI86
aa(lp22
I9
aI32
aa(lp23
I9
aI86
aa(lp24
I10
aI12
aa(lp25
I10
aI35
aa(lp26
I10
aI52
aa(lp27
I10
aI67
aa(lp28
I10
aI124
aa(lp29
I11
aI12
aa(lp30
I11
aI34
aa(lp31
I11
aI35
aa(lp32
I11
aI52
aa(lp33
I11
aI67
aa(lp34
I11
aI90
aa(lp35
I11
aI118
aa(lp36
I11
aI124
aa(lp37
I12
aI35
aa(lp38
I12
aI67
aa(lp39
I13
aI12
aa(lp40
I13
aI35
aa(lp41
I13
aI67
aa(lp42
I13
aI86
aa(lp43
I13
aI112
aa(lp44
I14
aI12
aa(lp45
I14
aI35
aa(lp46
I14
aI52
aa(lp47
I14
aI67
aa(lp48
I14
aI110
aa(lp49
I15
aI1
aa(lp50
I15
aI32
aa(lp51
I15
aI64
aa(lp52
I16
aI42
aa(lp53
I16
aI43
aa(lp54
I16
aI45
aa(lp55
I16
aI52
aa(lp56
I16
aI67
aa(lp57
I16
aI110
aa(lp58
I17
aI1
aa(lp59
I18
aI14
aa(lp60
I18
aI32
aa(lp61
I18
aI86
aa(lp62
I18
aI112
aa(lp63
I19
aI29
aa(lp64
I19
aI34
aa(lp65
I19
aI49
aa(lp66
I19
aI52
aa(lp67
I19
aI67
aa(lp68
I19
aI105
aa(lp69
I19
aI124
aa(lp70
I20
aI12
aa(lp71
I20
aI34
aa(lp72
I20
aI35
aa(lp73
I20
aI52
aa(lp74
I20
aI67
aa(lp75
I20
aI110
aa(lp76
I20
aI124
aa(lp77
I20
aI138
aa(lp78
I21
aI1
aa(lp79
I21
aI33
aa(lp80
I21
aI36
aa(lp81
I21
aI67
aa(lp82
I21
aI86
aa(lp83
I22
aI49
aa(lp84
I22
aI67
aa(lp85
I22
aI118
aa(lp86
I23
aI34
aa(lp87
I23
aI45
aa(lp88
I23
aI49
aa(lp89
I23
aI67
aa(lp90
I23
aI118
aa(lp91
I24
aI22
aa(lp92
I24
aI46
aa(lp93
I24
aI49
aa(lp94
I24
aI67
aa(lp95
I24
aI74
aa(lp96
I24
aI82
aa(lp97
I24
aI118
aa(lp98
I26
aI1
aa(lp99
I26
aI67
aa(lp100
I26
aI86
aa(lp101
I26
aI110
aa(lp102
I27
aI14
aa(lp103
I27
aI86
aa(lp104
I27
aI112
aa(lp105
I28
aI29
aa(lp106
I28
aI67
aa(lp107
I29
aI52
aa(lp108
I29
aI67
aa(lp109
I30
aI28
aa(lp110
I30
aI29
aa(lp111
I30
aI67
aa(lp112
I30
aI110
aa(lp113
I30
aI124
aa(lp114
I32
aI36
aa(lp115
I32
aI86
aa(lp116
I32
aI104
aa(lp117
I32
aI110
aa(lp118
I33
aI36
aa(lp119
I33
aI85
aa(lp120
I34
aI12
aa(lp121
I34
aI35
aa(lp122
I34
aI49
aa(lp123
I34
aI52
aa(lp124
I34
aI67
aa(lp125
I34
aI110
aa(lp126
I35
aI12
aa(lp127
I35
aI42
aa(lp128
I35
aI62
aa(lp129
I35
aI67
aa(lp130
I35
aI129
aa(lp131
I39
aI12
aa(lp132
I39
aI35
aa(lp133
I39
aI49
aa(lp134
I39
aI52
aa(lp135
I39
aI58
aa(lp136
I39
aI67
aa(lp137
I39
aI82
aa(lp138
I39
aI90
aa(lp139
I39
aI130
aa(lp140
I39
aI133
aa(lp141
I40
aI1
aa(lp142
I40
aI12
aa(lp143
I40
aI34
aa(lp144
I40
aI35
aa(lp145
I40
aI36
aa(lp146
I40
aI49
aa(lp147
I40
aI52
aa(lp148
I40
aI67
aa(lp149
I40
aI118
aa(lp150
I41
aI67
aa(lp151
I42
aI12
aa(lp152
I42
aI35
aa(lp153
I42
aI49
aa(lp154
I42
aI52
aa(lp155
I42
aI67
aa(lp156
I42
aI110
aa(lp157
I43
aI42
aa(lp158
I43
aI45
aa(lp159
I43
aI49
aa(lp160
I43
aI52
aa(lp161
I43
aI67
aa(lp162
I45
aI12
aa(lp163
I45
aI35
aa(lp164
I45
aI52
aa(lp165
I45
aI67
aa(lp166
I46
aI12
aa(lp167
I46
aI34
aa(lp168
I46
aI35
aa(lp169
I46
aI41
aa(lp170
I46
aI45
aa(lp171
I46
aI49
aa(lp172
I46
aI52
aa(lp173
I46
aI67
aa(lp174
I46
aI105
aa(lp175
I47
aI12
aa(lp176
I47
aI19
aa(lp177
I47
aI35
aa(lp178
I47
aI43
aa(lp179
I47
aI46
aa(lp180
I47
aI52
aa(lp181
I47
aI61
aa(lp182
I47
aI67
aa(lp183
I47
aI86
aa(lp184
I47
aI124
aa(lp185
I48
aI12
aa(lp186
I48
aI29
aa(lp187
I48
aI34
aa(lp188
I48
aI35
aa(lp189
I48
aI43
aa(lp190
I48
aI45
aa(lp191
I48
aI46
aa(lp192
I48
aI49
aa(lp193
I48
aI52
aa(lp194
I48
aI67
aa(lp195
I48
aI86
aa(lp196
I48
aI90
aa(lp197
I49
aI67
aa(lp198
I50
aI1
aa(lp199
I50
aI32
aa(lp200
I51
aI86
aa(lp201
I52
aI12
aa(lp202
I52
aI35
aa(lp203
I52
aI67
aa(lp204
I53
aI1
aa(lp205
I53
aI67
aa(lp206
I54
aI1
aa(lp207
I54
aI36
aa(lp208
I55
aI36
aa(lp209
I55
aI53
aa(lp210
I55
aI67
aa(lp211
I55
aI86
aa(lp212
I55
aI110
aa(lp213
I56
aI32
aa(lp214
I56
aI67
aa(lp215
I56
aI100
aa(lp216
I56
aI113
aa(lp217
I57
aI41
aa(lp218
I57
aI52
aa(lp219
I57
aI67
aa(lp220
I57
aI82
aa(lp221
I58
aI12
aa(lp222
I58
aI29
aa(lp223
I58
aI34
aa(lp224
I58
aI35
aa(lp225
I58
aI49
aa(lp226
I58
aI52
aa(lp227
I58
aI67
aa(lp228
I59
aI1
aa(lp229
I59
aI36
aa(lp230
I59
aI76
aa(lp231
I60
aI67
aa(lp232
I60
aI79
aa(lp233
I61
aI42
aa(lp234
I61
aI52
aa(lp235
I61
aI67
aa(lp236
I61
aI85
aa(lp237
I61
aI110
aa(lp238
I62
aI28
aa(lp239
I62
aI30
aa(lp240
I62
aI49
aa(lp241
I62
aI52
aa(lp242
I62
aI67
aa(lp243
I63
aI67
aa(lp244
I64
aI1
aa(lp245
I65
aI12
aa(lp246
I65
aI30
aa(lp247
I65
aI35
aa(lp248
I65
aI49
aa(lp249
I65
aI52
aa(lp250
I65
aI67
aa(lp251
I65
aI115
aa(lp252
I65
aI138
aa(lp253
I66
aI34
aa(lp254
I66
aI45
aa(lp255
I66
aI52
aa(lp256
I66
aI67
aa(lp257
I66
aI79
aa(lp258
I66
aI82
aa(lp259
I66
aI90
aa(lp260
I66
aI124
aa(lp261
I68
aI34
aa(lp262
I68
aI52
aa(lp263
I68
aI67
aa(lp264
I68
aI79
aa(lp265
I68
aI88
aa(lp266
I68
aI115
aa(lp267
I68
aI118
aa(lp268
I69
aI67
aa(lp269
I70
aI1
aa(lp270
I70
aI12
aa(lp271
I70
aI35
aa(lp272
I70
aI67
aa(lp273
I70
aI79
aa(lp274
I72
aI32
aa(lp275
I72
aI86
aa(lp276
I72
aI110
aa(lp277
I74
aI52
aa(lp278
I74
aI79
aa(lp279
I75
aI32
aa(lp280
I75
aI73
aa(lp281
I76
aI1
aa(lp282
I76
aI67
aa(lp283
I76
aI104
aa(lp284
I77
aI67
aa(lp285
I77
aI124
aa(lp286
I78
aI32
aa(lp287
I78
aI67
aa(lp288
I78
aI86
aa(lp289
I78
aI104
aa(lp290
I79
aI52
aa(lp291
I79
aI67
aa(lp292
I80
aI32
aa(lp293
I80
aI67
aa(lp294
I80
aI86
aa(lp295
I80
aI110
aa(lp296
I80
aI112
aa(lp297
I81
aI34
aa(lp298
I81
aI52
aa(lp299
I81
aI67
aa(lp300
I81
aI86
aa(lp301
I81
aI110
aa(lp302
I81
aI118
aa(lp303
I82
aI49
aa(lp304
I82
aI52
aa(lp305
I82
aI67
aa(lp306
I82
aI85
aa(lp307
I82
aI105
aa(lp308
I82
aI118
aa(lp309
I83
aI32
aa(lp310
I83
aI86
aa(lp311
I83
aI104
aa(lp312
I85
aI67
aa(lp313
I86
aI1
aa(lp314
I86
aI2
aa(lp315
I86
aI67
aa(lp316
I86
aI79
aa(lp317
I86
aI110
aa(lp318
I87
aI17
aa(lp319
I87
aI59
aa(lp320
I87
aI78
aa(lp321
I87
aI86
aa(lp322
I87
aI110
aa(lp323
I87
aI133
aa(lp324
I88
aI49
aa(lp325
I88
aI52
aa(lp326
I88
aI67
aa(lp327
I88
aI131
aa(lp328
I89
aI12
aa(lp329
I89
aI20
aa(lp330
I89
aI35
aa(lp331
I89
aI41
aa(lp332
I89
aI49
aa(lp333
I89
aI67
aa(lp334
I89
aI90
aa(lp335
I89
aI110
aa(lp336
I90
aI12
aa(lp337
I90
aI35
aa(lp338
I90
aI41
aa(lp339
I90
aI67
aa(lp340
I91
aI1
aa(lp341
I91
aI30
aa(lp342
I91
aI52
aa(lp343
I91
aI67
aa(lp344
I92
aI1
aa(lp345
I92
aI67
aa(lp346
I92
aI112
aa(lp347
I94
aI12
aa(lp348
I94
aI34
aa(lp349
I94
aI35
aa(lp350
I94
aI49
aa(lp351
I94
aI67
aa(lp352
I95
aI30
aa(lp353
I95
aI34
aa(lp354
I95
aI38
aa(lp355
I95
aI46
aa(lp356
I95
aI49
aa(lp357
I95
aI52
aa(lp358
I95
aI67
aa(lp359
I95
aI74
aa(lp360
I95
aI124
aa(lp361
I96
aI34
aa(lp362
I96
aI40
aa(lp363
I96
aI52
aa(lp364
I96
aI67
aa(lp365
I97
aI1
aa(lp366
I97
aI14
aa(lp367
I97
aI36
aa(lp368
I98
aI32
aa(lp369
I98
aI49
aa(lp370
I98
aI52
aa(lp371
I98
aI67
aa(lp372
I98
aI86
aa(lp373
I99
aI32
aa(lp374
I99
aI40
aa(lp375
I99
aI67
aa(lp376
I99
aI77
aa(lp377
I99
aI86
aa(lp378
I99
aI100
aa(lp379
I100
aI32
aa(lp380
I100
aI67
aa(lp381
I101
aI86
aa(lp382
I101
aI103
aa(lp383
I101
aI110
aa(lp384
I101
aI113
aa(lp385
I102
aI45
aa(lp386
I102
aI67
aa(lp387
I103
aI12
aa(lp388
I103
aI34
aa(lp389
I103
aI35
aa(lp390
I103
aI40
aa(lp391
I103
aI49
aa(lp392
I103
aI52
aa(lp393
I103
aI67
aa(lp394
I103
aI110
aa(lp395
I103
aI118
aa(lp396
I104
aI1
aa(lp397
I105
aI49
aa(lp398
I105
aI52
aa(lp399
I105
aI67
aa(lp400
I106
aI2
aa(lp401
I106
aI12
aa(lp402
I106
aI34
aa(lp403
I106
aI35
aa(lp404
I106
aI47
aa(lp405
I106
aI49
aa(lp406
I106
aI52
aa(lp407
I106
aI67
aa(lp408
I106
aI76
aa(lp409
I106
aI86
aa(lp410
I106
aI112
aa(lp411
I106
aI131
aa(lp412
I106
aI137
aa(lp413
I107
aI14
aa(lp414
I107
aI31
aa(lp415
I107
aI52
aa(lp416
I107
aI67
aa(lp417
I107
aI124
aa(lp418
I108
aI34
aa(lp419
I108
aI45
aa(lp420
I108
aI52
aa(lp421
I108
aI67
aa(lp422
I110
aI67
aa(lp423
I111
aI42
aa(lp424
I111
aI52
aa(lp425
I111
aI67
aa(lp426
I111
aI118
aa(lp427
I112
aI14
aa(lp428
I113
aI1
aa(lp429
I113
aI2
aa(lp430
I113
aI14
aa(lp431
I113
aI36
aa(lp432
I113
aI52
aa(lp433
I113
aI67
aa(lp434
I113
aI76
aa(lp435
I113
aI112
aa(lp436
I114
aI32
aa(lp437
I115
aI12
aa(lp438
I115
aI34
aa(lp439
I115
aI35
aa(lp440
I115
aI49
aa(lp441
I115
aI52
aa(lp442
I115
aI67
aa(lp443
I115
aI124
aa(lp444
I116
aI42
aa(lp445
I116
aI110
aa(lp446
I116
aI118
aa(lp447
I117
aI12
aa(lp448
I117
aI34
aa(lp449
I117
aI35
aa(lp450
I117
aI49
aa(lp451
I117
aI52
aa(lp452
I117
aI67
aa(lp453
I117
aI118
aa(lp454
I118
aI12
aa(lp455
I118
aI35
aa(lp456
I118
aI49
aa(lp457
I118
aI52
aa(lp458
I118
aI67
aa(lp459
I118
aI110
aa(lp460
I119
aI12
aa(lp461
I119
aI34
aa(lp462
I119
aI35
aa(lp463
I119
aI42
aa(lp464
I119
aI49
aa(lp465
I119
aI52
aa(lp466
I119
aI67
aa(lp467
I119
aI118
aa(lp468
I119
aI124
aa(lp469
I119
aI129
aa(lp470
I119
aI138
aa(lp471
I120
aI12
aa(lp472
I120
aI35
aa(lp473
I120
aI52
aa(lp474
I120
aI67
aa(lp475
I121
aI32
aa(lp476
I121
aI67
aa(lp477
I121
aI78
aa(lp478
I121
aI86
aa(lp479
I121
aI112
aa(lp480
I122
aI1
aa(lp481
I122
aI12
aa(lp482
I122
aI35
aa(lp483
I122
aI52
aa(lp484
I122
aI67
aa(lp485
I122
aI79
aa(lp486
I123
aI32
aa(lp487
I123
aI36
aa(lp488
I123
aI86
aa(lp489
I123
aI104
aa(lp490
I124
aI52
aa(lp491
I124
aI67
aa(lp492
I125
aI136
aa(lp493
I126
aI1
aa(lp494
I126
aI67
aa(lp495
I127
aI40
aa(lp496
I127
aI67
aa(lp497
I127
aI138
aa(lp498
I128
aI12
aa(lp499
I128
aI14
aa(lp500
I128
aI35
aa(lp501
I128
aI49
aa(lp502
I128
aI67
aa(lp503
I128
aI85
aa(lp504
I128
aI110
aa(lp505
I129
aI12
aa(lp506
I129
aI14
aa(lp507
I129
aI35
aa(lp508
I129
aI49
aa(lp509
I129
aI52
aa(lp510
I129
aI67
aa(lp511
I129
aI79
aa(lp512
I129
aI85
aa(lp513
I129
aI105
aa(lp514
I129
aI110
aa(lp515
I130
aI11
aa(lp516
I130
aI12
aa(lp517
I130
aI20
aa(lp518
I130
aI35
aa(lp519
I130
aI41
aa(lp520
I130
aI42
aa(lp521
I130
aI46
aa(lp522
I130
aI52
aa(lp523
I130
aI67
aa(lp524
I130
aI90
aa(lp525
I130
aI117
aa(lp526
I131
aI49
aa(lp527
I131
aI52
aa(lp528
I131
aI67
aa(lp529
I132
aI32
aa(lp530
I132
aI67
aa(lp531
I132
aI78
aa(lp532
I132
aI86
aa(lp533
I132
aI113
aa(lp534
I133
aI97
aa(lp535
I134
aI42
aa(lp536
I134
aI52
aa(lp537
I134
aI61
aa(lp538
I134
aI67
aa(lp539
I135
aI1
aa(lp540
I135
aI2
aa(lp541
I135
aI36
aa(lp542
I135
aI85
aa(lp543
I135
aI110
aa(lp544
I136
aI137
aa(lp545
I138
aI12
aa(lp546
I138
aI14
aa(lp547
I138
aI34
aa(lp548
I138
aI35
aa(lp549
I138
aI52
aa(lp550
I138
aI67
aa(lp551
I138
aI110
aa(lp552
I138
aI124
aa.