(lp0
S'safeandsecurenetworkedcontrolsystemsunderdenial-of-serviceattacks'
p1
aS'stealthydeceptionattacksonwaterscadasystems'
p2
aS'dynamicloadalteringattacksinsmartgrid'
p3
aS'identificationofvulnerablenodeclustersagainstfalsedatainjectionattackinanamibasedsmartgrid'
p4
aS'securityinstochasticcontrolsystems:fundamentallimitationsandperformancebounds'
p5
aS'controllabilityofdynamicalsystems:threatmodelsandreactivesecurity'
p6
aS'risk-sensitivecontrolundermarkovmodulateddenial-of-service(dos)attackstrategies'
p7
aS'amarkovianapproachforattackresilientcontrolofmobileroboticsystems'
p8
aS'attackresilientstateestimationforautonomousroboticsystems'
p9
aS'false-datainjectionattacktocontrolreal-timepriceinelectricitymarket'
p10
aS'usingcoverttopologicalinformationfordefenseagainstmaliciousattacksondcstateestimation'
p11
aS'detectingfalsedatainjectionattacksondcstateestimation'
p12
aS'onanalysisanddesignofstealth-resilientcontrolsystems'
p13
aS'attacksagainstprocesscontrolsystems:riskassessmentdetectionandresponse'
p14
aS'event-triggeredcontroloverunreliablenetworkssubjecttojammingattacks'
p15
aS'coordinatedcyber-attacksonthemeasurementfunctioninhybridstateestimation'
p16
aS'optimaldenial-of-serviceattackschedulingwithenergyconstraint'
p17
aS'cyber-physicalsystems:dynamicsensorattacksandstrongobservability'
p18
aS'ramp-induceddataattacksonlook-aheaddispatchinreal-timepowermarkets'
p19
aS'powerflowcyberattacksandpertubation-baseddefense'
p20
aS'input-to-statestabilizingcontrolunderdenial-of-service'
p21
aS'optimalhiddenscadaattacksonpowergrid:agraphtheoreticapproach'
p22
aS'onebreakerisenough:hiddentopologyattacksonpowergrids'
p23
aS'optimaldataattacksonpowergrids:leveragingdetection&measurementjamming'
p24
aS'furtherresultsonfaultdetectionandisolationofmaliciousnodesinmulti-hopcontrolnetworks'
p25
aS'finiteenergyandboundedattacksoncontrolsystemsensorsignals'
p26
aS'sequentialmonitoringofscadasystemsagainstcyber/physicalattacks'
p27
aS'effectofstealthybaddatainjectiononnetworkcongestioninmarketbasedpowersystem'
p28
aS'stealthfalsedatainjectionusingindependentcomponentanalysisinsmartgrid'
p29
aS'baddatainjectionattackanddefenseinelectricitymarketusinggametheorystudy'
p30
aS'energy-basedattackdetectioninnetworkedcontrolsystems'
p31
aS'secureestimationandcontrolforcyber-physicalsystemsunderadversarialattacks'
p32
aS'onmulti-inputcontrollablelinearsystemsunderunknownperiodicdosjammingattacks'
p33
aS'smartgriddataintegrityattacks'
p34
aS'detectingfalsedatainjectionattacksinacstateestimation'
p35
aS'optimalcontrolinthepresenceofanintelligentjammerwithlimitedactions'
p36
aS'aresilientfeedbacklinearizationcontrolschemeforsmartgridsundercyber-physicaldisturbances'
p37
aS'tuningoutofphase:resonanceattacks'
p38
aS'sparsemaliciousfalsedatainjectionattacksanddefensemechanismsinsmartgrids'
p39
aS'efficientcomputationsofasecurityindexforfalsedataattacksinpowernetworks'
p40
aS'defendingfalsedatainjectionattackonsmartgridnetworkusingadaptivecusumtest'
p41
aS'vulnerabilityassessmentofacstateestimationwithrespecttofalsedatainjectioncyber-attacks'
p42
aS'impactofdataqualityonreal-timelocationalmarginalprice'
p43
aS'anomalydetectionincyber-physicalsystems:aformalmethodsapproach'
p44
aS'ontopologyattackofasmartgrid:undetectableattacksandcountermeasures'
p45
aS'dataframingattackonstateestimation'
p46
aS'dynamicattacksonpowersystemseconomicdispatch'
p47
aS'subspacemethodsfordataattackonstateestimation:adatadrivenapproach'
p48
aS'strategicprotectionagainstdatainjectionattacksonpowergrids'
p49
aS'cyber-securityenhancementofnetworkedcontrolsystemsusinghomomorphicencryption'
p50
aS'covertattackonadiscrete-timesystemwithlimiteduseoftheavailabledisruptionresources'
p51
aS'maliciousdataattacksonthesmartgrid'
p52
aS'analyticalanalysisofcyberattacksonunmannedaerialsystems'
p53
aS'hybridrobustcontrollerdesign:cyberattackattenuationforcyber-physicalsystems'
p54
aS'analysisanddesignofstealthycyberattacksonunmannedaerialsystems'
p55
aS'secureandrobuststateestimationundersensorattacksmeasurementnoisesandprocessdisturbances:observer-basedcombinatorialapproach'
p56
aS'quickestdetectionoffalsedatainjectionattackinwide-areasmartgrids'
p57
aS'statesummationfordetectingfalsedataattackonsmartgrid'
p58
aS'jammingattacksonremotestateestimationincyber-physicalsystems:agame-theoreticapproach'
p59
aS'analgebraicdetectionapproachforcontrolsystemsundermultiplestochasticcyber-attacks'
p60
aS'cyberattacksonacstateestimation:unobservabilityandphysicalconsequences'
p61
aS'detectingfalsedatainjectionattacksonpowergridbysparseoptimization'
p62
aS'acoordinatedmulti-switchattackforcascadingfailuresinsmartgrid'
p63
aS'astochasticgameapproachtothesecurityissueofnetworkedcontrolsystemsunderjammingattacks'
p64
aS'abnormaltraffic-indexedstateestimation:acyber-physicalfusionapproachforsmartgridattackdetection'
p65
aS'modelingoflocalfalsedatainjectionattackswithreducednetworkinformation'
p66
aS'falsedatainjectionattacksagainststateestimationinelectricpowergrids'
p67
aS'consumer:anovelhybridintrusiondetectionsystemfordistributionnetworksinsmartgrid'
p68
aS'multiactdynamicgamestrategyforjammingattackinelectricitymarket'
p69
aS'detectionoffaultsandattacksincludingfalsedatainjectionattackinsmartgridusingkalmanfilter'
p70
aS'amoving-horizonhybridstochasticgameforsecurecontrolofcyber-physicalsystems'
p71
aS'codingsensoroutputsforinjectionattacksdetection'
p72
aS'securestateestimationandcontrolusingmultiple(insecure)observers'
p73
aS'ratealterationattacksinsmartgrid'
p74
aS'securestateestimation:optimalguaranteesagainstsensorattacksinthepresenceofnoise'
p75
aS'integrityattacksoncyber-physicalsystems'
p76
aS'secureestimationinthepresenceofintegrityattacks'
p77
aS'physicalauthenticationofcontrolsystems:designingwatermarkedcontrolinputstodetectcounterfeitsensoroutputs'
p78
aS'distributedinternet-basedloadalteringattacksagainstsmartpowergrids'
p79
aS'dualratecontrolforsecurityincyber-physicalsystems'
p80
aS'areal-timeattacklocalizationalgorithmforlargepowersystemnetworksusinggraph-theoretictechniques'
p81
aS'sparseattackconstructionandstateestimationinthesmartgrid:centralizedanddistributedmodels'
p82
aS'attack-resilientstateestimationinthepresenceofnoise'
p83
aS'highconfidencenetworkedcontrolfornextgenerationairtransportationsystems'
p84
aS'adistributedmethodforstateestimationandfalsedatadetectioninpowernetworks'
p85
aS'attackdetectionandidentificationincyber-physicalsystems'
p86
aS'event-basedattackagainstremotestateestimation'
p87
aS'defendingagainstunidentifiableattacksinelectricpowergrids'
p88
aS'movingtargetdefenseforhardeningthesecurityofthepowersystemstateestimation'
p89
aS'falsedatainjectionattackswithincompleteinformationagainstsmartpowergrids'
p90
aS'detectionoffalsedatainjectionattacksinsmartgridcommunicationsystems'
p91
aS'activeglrdetectorforresilientlqgcontrollerinnetworkedcontrolsystems'
p92
aS'attackmitigationinadversarialplatooningusingdetection-basedslidingmodecontrol'
p93
aS'anabruptchangedetectionheuristicwithapplicationstocyberdataattacksonpowersystems'
p94
aS'smartgriddatainjectionattacks:todefendornot'
p95
aS'statisticalstructurelearningtoensuredataintegrityinsmartgrid'
p96
aS'minimaxcontrolforcyber-physicalsystemsundernetworkpacketschedulingattacks'
p97
aS'pycra:physicalchallenge-responseauthenticationforactivesensorsunderspoofingattacks'
p98
aS'securestatereconstructionindifferentiallyflatsystemsundersensorattacksusingsatisfiabilitymodulotheorysolving'
p99
aS'event-triggeredprojectedluenbergerobserverforlinearsystemsundersparsesensorattacks'
p100
aS'covertmisappropriationofnetworkedcontrolsystems:presentingafeedbackstructure'
p101
aS'jointcyberandphysicalattacksonpowergrids:graphtheoreticalapproachesforinformationrecovery'
p102
aS'dataattackisolationinpowernetworksusingsecurevoltagemagnitudemeasurements'
p103
aS'thewirelesscontrolnetwork:monitoringformaliciousbehavior'
p104
aS'distributedjointcyberattackdetectionandstaterecoveryinsmartgrids'
p105
aS'securepowersystemsagainstmaliciouscyber-physicaldataattacks:protectionandidentification'
p106
aS'integrityattacksonreal-timepricinginelectricpowergrids'
p107
aS'lpattack:leveragepointattacksagainststateestimationinsmartgrid'
p108
aS'securenetworkedcontrolsystemsagainstreplayattackswithoutinjectingauthenticationnoise'
p109
aS'cybersecurityanalysisofstateestimatorsinelectricpowersystems'
p110
aS'voltagecontrolforinterconnectedmicrogridsunderadversarialactions'
p111
aS'revealingstealthyattacksincontrolsystems'
p112
aS'asecurecontrolframeworkforresource-limitedadversaries'
p113
aS'safetyenvelopeforsecurity'
p114
aS'real-timeintrusiondetectioninpowersystemoperations'
p115
aS'cyber-attacksintheautomaticgenerationcontrol'
p116
aS'securityoffullydistributedpowersystemstateestimation:detectionandmitigationofdataintegrityattacks'
p117
aS'network-awaremitigationofdataintegrityattacksonpowersystemstateestimation'
p118
aS'extendeddistributedstateestimation:adetectionmethodagainsttolerablefalsedatainjectionattacksinsmartgrids'
p119
aS'stealthyattacksinpowersystems:limitationsonmanipulatingtheestimationdeviationscausedbyswitchingnetworktopologies'
p120
aS'detectingintegrityattacksoncontrolsystemsusingamovingtargetapproach'
p121
aS'biologicallyinspiredhierarchicalcyber-physicalmulti-agentdistributedcontrolframeworkforsustainablesmartgrids'
p122
aS'attack-resilientminimummean-squarederrorestimation'
p123
aS'integritydataattacksinpowermarketoperations'
p124
aS'secureandresilientcontroldesignforcloudenablednetworkedcontrolsystems'
p125
aS'securityconceptsforthedynamicsofautonomousvehiclenetworks'
p126
aS'cybersecurityanalysisofpowernetworksbyhypergraphcutalgorithms'
p127
aS'onfalsedatainjectionattacksagainstkalmanfilteringinpowersystemdynamicstateestimation'
p128
aS'onfalsedata-injectionattacksagainstpowersystemstateestimation:modelingandcountermeasures'
p129
aS'blindfalsedatainjectionattackusingpcaapproximationmethodinsmartgrid'
p130
aS'quantitativeanalysisofloadredistributionattacksinpowersystems'
p131
aS'securityincyber-physicalsystems:controllerdesignagainstknown-plaintextattack'
p132
aS'onlinedeceptionattackagainstremotestateestimation'
p133
aS'implementationofunobservablestate-preservingtopologyattacks'
p134
aS'ontheperformanceanalysisofresilientnetworkedcontrolsystemsunderreplayattacks'
p135
aS'game-theoreticmethodsforrobustnesssecurityandresilienceofcyberphysicalcontrolsystems:games-in-gamesprincipleforoptimalcross-layerresilientcontrolsystems'
p136
aS'resilientdistributedcontrolofmulti-agentcyber-physicalsystems'
p137
aS'scpse:security-orientedcyber-physicalstateestimationforpowergridcriticalinfrastructures'
p138
a.